target datalayout = "e-m:e-p270:32:32-p271:32:32-p272:64:64-i64:64-i128:128-f80:128-n8:16:32:64-S128"
target triple = "x86_64-pc-linux-gnu"

@.str.7 = private unnamed_addr constant [35 x i8] c"../openssl/test/bio_memleak_test.c\00", align 1
@.str.8 = private unnamed_addr constant [4 x i8] c"bio\00", align 1
@.str.13 = private unnamed_addr constant [31 x i8] c"BIO_puts(bio, \22Hello World\\n\22)\00", align 1
@.str.14 = private unnamed_addr constant [3 x i8] c"12\00", align 1
@.str.15 = private unnamed_addr constant [13 x i8] c"Hello World\0A\00", align 1
@.str.18 = private unnamed_addr constant [2 x i8] c"0\00", align 1
@.str.20 = private unnamed_addr constant [16 x i8] c"\22Hello World\\n\22\00", align 1
@.str.23 = private unnamed_addr constant [5 x i8] c"data\00", align 1
@.str.29 = private unnamed_addr constant [24 x i8] c"BIO_read(bio, data, 16)\00", align 1
@.str.33 = private unnamed_addr constant [15 x i8] c"BIO_reset(bio)\00", align 1
@.str.37 = private unnamed_addr constant [23 x i8] c"BIO_puts(bio, \22Hi!\\n\22)\00", align 1
@.str.38 = private unnamed_addr constant [2 x i8] c"4\00", align 1
@.str.39 = private unnamed_addr constant [5 x i8] c"Hi!\0A\00", align 1
@.str.40 = private unnamed_addr constant [3 x i8] c"16\00", align 1
@.str.41 = private unnamed_addr constant [21 x i8] c"\22Hello World\\nHi!\\n\22\00", align 1
@.str.42 = private unnamed_addr constant [17 x i8] c"Hello World\0AHi!\0A\00", align 1

; Function Attrs: nounwind uwtable
define internal i32 @test_bio_rdwr_rdonly() #0 {
  %1 = alloca i32, align 4
  %2 = alloca ptr, align 8
  %3 = alloca [16 x i8], align 16
  call void @llvm.lifetime.start.p0(i64 4, ptr %1) #3
  store i32 0, ptr %1, align 4, !tbaa !4
  call void @llvm.lifetime.start.p0(i64 8, ptr %2) #3
  store ptr null, ptr %2, align 8, !tbaa !8
  call void @llvm.lifetime.start.p0(i64 16, ptr %3) #3
  %4 = call ptr @BIO_s_mem()
  %5 = call ptr @BIO_new(ptr noundef %4)
  store ptr %5, ptr %2, align 8, !tbaa !8
  %6 = load ptr, ptr %2, align 8, !tbaa !8
  %7 = call i32 @test_ptr(ptr noundef @.str.7, i32 noundef 155, ptr noundef @.str.8, ptr noundef %6)
  %8 = icmp ne i32 %7, 0
  br i1 %8, label %10, label %9

9:                                                ; preds = %0
  br label %56

10:                                               ; preds = %0
  %11 = load ptr, ptr %2, align 8, !tbaa !8
  %12 = call i32 @BIO_puts(ptr noundef %11, ptr noundef @.str.15)
  %13 = call i32 @test_int_eq(ptr noundef @.str.7, i32 noundef 157, ptr noundef @.str.13, ptr noundef @.str.14, i32 noundef %12, i32 noundef 12)
  %14 = icmp ne i32 %13, 0
  br i1 %14, label %16, label %15

15:                                               ; preds = %10
  br label %56

16:                                               ; preds = %10
  %17 = load ptr, ptr %2, align 8, !tbaa !8
  call void @BIO_set_flags(ptr noundef %17, i32 noundef 512)
  %18 = load ptr, ptr %2, align 8, !tbaa !8
  %19 = getelementptr inbounds [16 x i8], ptr %3, i64 0, i64 0
  %20 = call i32 @BIO_read(ptr noundef %18, ptr noundef %19, i32 noundef 16)
  %21 = call i32 @test_int_eq(ptr noundef @.str.7, i32 noundef 161, ptr noundef @.str.29, ptr noundef @.str.14, i32 noundef %20, i32 noundef 12)
  %22 = icmp ne i32 %21, 0
  br i1 %22, label %24, label %23

23:                                               ; preds = %16
  br label %56

24:                                               ; preds = %16
  %25 = getelementptr inbounds [16 x i8], ptr %3, i64 0, i64 0
  %26 = call i32 @test_mem_eq(ptr noundef @.str.7, i32 noundef 163, ptr noundef @.str.23, ptr noundef @.str.20, ptr noundef %25, i64 noundef 12, ptr noundef @.str.15, i64 noundef 12)
  %27 = icmp ne i32 %26, 0
  br i1 %27, label %29, label %28

28:                                               ; preds = %24
  br label %56

29:                                               ; preds = %24
  %30 = load ptr, ptr %2, align 8, !tbaa !8
  %31 = call i64 @BIO_ctrl(ptr noundef %30, i32 noundef 1, i64 noundef 0, ptr noundef null)
  %32 = trunc i64 %31 to i32
  %33 = call i32 @test_int_gt(ptr noundef @.str.7, i32 noundef 165, ptr noundef @.str.33, ptr noundef @.str.18, i32 noundef %32, i32 noundef 0)
  %34 = icmp ne i32 %33, 0
  br i1 %34, label %36, label %35

35:                                               ; preds = %29
  br label %56

36:                                               ; preds = %29
  %37 = load ptr, ptr %2, align 8, !tbaa !8
  call void @BIO_clear_flags(ptr noundef %37, i32 noundef 512)
  %38 = load ptr, ptr %2, align 8, !tbaa !8
  %39 = call i32 @BIO_puts(ptr noundef %38, ptr noundef @.str.39)
  %40 = call i32 @test_int_eq(ptr noundef @.str.7, i32 noundef 169, ptr noundef @.str.37, ptr noundef @.str.38, i32 noundef %39, i32 noundef 4)
  %41 = icmp ne i32 %40, 0
  br i1 %41, label %43, label %42

42:                                               ; preds = %36
  br label %56

43:                                               ; preds = %36
  %44 = load ptr, ptr %2, align 8, !tbaa !8
  %45 = getelementptr inbounds [16 x i8], ptr %3, i64 0, i64 0
  %46 = call i32 @BIO_read(ptr noundef %44, ptr noundef %45, i32 noundef 16)
  %47 = call i32 @test_int_eq(ptr noundef @.str.7, i32 noundef 171, ptr noundef @.str.29, ptr noundef @.str.40, i32 noundef %46, i32 noundef 16)
  %48 = icmp ne i32 %47, 0
  br i1 %48, label %50, label %49

49:                                               ; preds = %43
  br label %56

50:                                               ; preds = %43
  %51 = getelementptr inbounds [16 x i8], ptr %3, i64 0, i64 0
  %52 = call i32 @test_mem_eq(ptr noundef @.str.7, i32 noundef 174, ptr noundef @.str.23, ptr noundef @.str.41, ptr noundef %51, i64 noundef 16, ptr noundef @.str.42, i64 noundef 16)
  %53 = icmp ne i32 %52, 0
  br i1 %53, label %55, label %54

54:                                               ; preds = %50
  br label %56

55:                                               ; preds = %50
  store i32 1, ptr %1, align 4, !tbaa !4
  br label %56

56:                                               ; preds = %55, %54, %49, %42, %35, %28, %23, %15, %9
  %57 = load ptr, ptr %2, align 8, !tbaa !8
  %58 = call i32 @BIO_free(ptr noundef %57)
  %59 = load i32, ptr %1, align 4, !tbaa !4
  call void @llvm.lifetime.end.p0(i64 16, ptr %3) #3
  call void @llvm.lifetime.end.p0(i64 8, ptr %2) #3
  call void @llvm.lifetime.end.p0(i64 4, ptr %1) #3
  ret i32 %59
}